target datalayout = "e-m:e-p270:32:32-p271:32:32-p272:64:64-i64:64-i128:128-f80:128-n8:16:32:64-S128"
target triple = "x86_64-unknown-linux-gnu"

%"struct.icu_75::FormattedStringBuilder::Field" = type { i8 }
%"class.icu_75::MaybeStackArray" = type <{ ptr, i32, i8, [40 x i8], [3 x i8] }>
%"class.icu_75::number::impl::MutablePatternModifier" = type { %"class.icu_75::number::impl::MicroPropsGenerator", %"class.icu_75::number::impl::Modifier", %"class.icu_75::number::impl::SymbolProvider", i8, ptr, %"struct.icu_75::FormattedStringBuilder::Field", i32, i8, i8, ptr, i32, %"class.icu_75::number::impl::CurrencySymbols", ptr, i32, i32, ptr, %"class.icu_75::UnicodeString" }
%"class.icu_75::number::impl::MicroPropsGenerator" = type { ptr }
%"class.icu_75::number::impl::Modifier" = type { ptr }
%"class.icu_75::number::impl::SymbolProvider" = type { ptr }
%"class.icu_75::number::impl::CurrencySymbols" = type { [8 x i8], %"class.icu_75::CurrencyUnit", %"class.icu_75::CharString", %"class.icu_75::UnicodeString", %"class.icu_75::UnicodeString" }
%"class.icu_75::CurrencyUnit" = type { %"class.icu_75::MeasureUnit.base", [4 x i16], [4 x i8] }
%"class.icu_75::MeasureUnit.base" = type <{ %"class.icu_75::UObject", ptr, i16, i8 }>
%"class.icu_75::UObject" = type { ptr }
%"class.icu_75::CharString" = type { %"class.icu_75::MaybeStackArray", i32, [4 x i8] }
%"class.icu_75::UnicodeString" = type { %"class.icu_75::Replaceable", %"union.icu_75::UnicodeString::StackBufferOrFields" }
%"class.icu_75::Replaceable" = type { %"class.icu_75::UObject" }
%"union.icu_75::UnicodeString::StackBufferOrFields" = type { %struct.anon.0, [32 x i8] }
%struct.anon.0 = type { i16, i32, i32, ptr }
%struct.anon = type { i16, [27 x i16] }

@_ZTVN6icu_7513UnicodeStringE = external unnamed_addr constant { [13 x ptr] }, align 8
@_ZTVN6icu_7511ReplaceableE = external unnamed_addr constant { [13 x ptr] }, align 8
@_ZTVN6icu_757UObjectE = external unnamed_addr constant { [5 x ptr] }, align 8

; Function Attrs: mustprogress nounwind uwtable
define linkonce_odr void @_ZN6icu_757UObjectC2Ev(ptr noundef nonnull align 8 dereferenceable(8) %this) unnamed_addr #0 comdat align 2 {
entry:
  %this.addr = alloca ptr, align 8
  store ptr %this, ptr %this.addr, align 8
  %this1 = load ptr, ptr %this.addr, align 8
  store ptr getelementptr inbounds ({ [5 x ptr] }, ptr @_ZTVN6icu_757UObjectE, i32 0, i32 0, i32 2), ptr %this1, align 8
  ret void
}

; Function Attrs: mustprogress nounwind uwtable
define linkonce_odr void @_ZN6icu_7511ReplaceableC2Ev(ptr noundef nonnull align 8 dereferenceable(8) %this) unnamed_addr #0 comdat align 2 {
entry:
  %this.addr = alloca ptr, align 8
  store ptr %this, ptr %this.addr, align 8
  %this1 = load ptr, ptr %this.addr, align 8
  call void @_ZN6icu_757UObjectC2Ev(ptr noundef nonnull align 8 dereferenceable(8) %this1) #12
  store ptr getelementptr inbounds ({ [13 x ptr] }, ptr @_ZTVN6icu_7511ReplaceableE, i32 0, i32 0, i32 2), ptr %this1, align 8
  ret void
}

; Function Attrs: mustprogress uwtable
define linkonce_odr void @_ZN6icu_7513UnicodeStringC2Ev(ptr noundef nonnull align 8 dereferenceable(64) %this) unnamed_addr #1 comdat align 2 {
entry:
  %this.addr = alloca ptr, align 8
  store ptr %this, ptr %this.addr, align 8
  %this1 = load ptr, ptr %this.addr, align 8
  call void @_ZN6icu_7511ReplaceableC2Ev(ptr noundef nonnull align 8 dereferenceable(8) %this1)
  store ptr getelementptr inbounds ({ [13 x ptr] }, ptr @_ZTVN6icu_7513UnicodeStringE, i32 0, i32 0, i32 2), ptr %this1, align 8
  %fUnion2 = getelementptr inbounds %"class.icu_75::UnicodeString", ptr %this1, i32 0, i32 1
  %fLengthAndFlags = getelementptr inbounds %struct.anon, ptr %fUnion2, i32 0, i32 0
  store i16 2, ptr %fLengthAndFlags, align 8
  ret void
}

; Function Attrs: mustprogress uwtable
define void @_ZNK6icu_756number4impl22MutablePatternModifier29getCurrencySymbolForUnitWidthER10UErrorCode(ptr noalias sret(%"class.icu_75::UnicodeString") align 8 %agg.result, ptr noundef nonnull align 8 dereferenceable(392) %this, ptr noundef nonnull align 4 dereferenceable(4) %status) #1 align 2 {
entry:
  %result.ptr = alloca ptr, align 8
  %this.addr = alloca ptr, align 8
  %status.addr = alloca ptr, align 8
  store ptr %agg.result, ptr %result.ptr, align 8
  store ptr %this, ptr %this.addr, align 8
  store ptr %status, ptr %status.addr, align 8
  %this1 = load ptr, ptr %this.addr, align 8
  %fUnitWidth = getelementptr inbounds %"class.icu_75::number::impl::MutablePatternModifier", ptr %this1, i32 0, i32 10
  %0 = load i32, ptr %fUnitWidth, align 8
  switch i32 %0, label %sw.default [
    i32 0, label %sw.bb
    i32 1, label %sw.bb2
    i32 3, label %sw.bb4
    i32 4, label %sw.bb6
    i32 5, label %sw.bb8
    i32 6, label %sw.bb10
  ]

sw.bb:                                            ; preds = %entry
  %fCurrencySymbols = getelementptr inbounds %"class.icu_75::number::impl::MutablePatternModifier", ptr %this1, i32 0, i32 11
  %1 = load ptr, ptr %status.addr, align 8
  call void @_ZNK6icu_756number4impl15CurrencySymbols23getNarrowCurrencySymbolER10UErrorCode(ptr sret(%"class.icu_75::UnicodeString") align 8 %agg.result, ptr noundef nonnull align 8 dereferenceable(232) %fCurrencySymbols, ptr noundef nonnull align 4 dereferenceable(4) %1)
  br label %return

sw.bb2:                                           ; preds = %entry
  %fCurrencySymbols3 = getelementptr inbounds %"class.icu_75::number::impl::MutablePatternModifier", ptr %this1, i32 0, i32 11
  %2 = load ptr, ptr %status.addr, align 8
  call void @_ZNK6icu_756number4impl15CurrencySymbols17getCurrencySymbolER10UErrorCode(ptr sret(%"class.icu_75::UnicodeString") align 8 %agg.result, ptr noundef nonnull align 8 dereferenceable(232) %fCurrencySymbols3, ptr noundef nonnull align 4 dereferenceable(4) %2)
  br label %return

sw.bb4:                                           ; preds = %entry
  %fCurrencySymbols5 = getelementptr inbounds %"class.icu_75::number::impl::MutablePatternModifier", ptr %this1, i32 0, i32 11
  %3 = load ptr, ptr %status.addr, align 8
  call void @_ZNK6icu_756number4impl15CurrencySymbols21getIntlCurrencySymbolER10UErrorCode(ptr sret(%"class.icu_75::UnicodeString") align 8 %agg.result, ptr noundef nonnull align 8 dereferenceable(232) %fCurrencySymbols5, ptr noundef nonnull align 4 dereferenceable(4) %3)
  br label %return

sw.bb6:                                           ; preds = %entry
  %fCurrencySymbols7 = getelementptr inbounds %"class.icu_75::number::impl::MutablePatternModifier", ptr %this1, i32 0, i32 11
  %4 = load ptr, ptr %status.addr, align 8
  call void @_ZNK6icu_756number4impl15CurrencySymbols23getFormalCurrencySymbolER10UErrorCode(ptr sret(%"class.icu_75::UnicodeString") align 8 %agg.result, ptr noundef nonnull align 8 dereferenceable(232) %fCurrencySymbols7, ptr noundef nonnull align 4 dereferenceable(4) %4)
  br label %return

sw.bb8:                                           ; preds = %entry
  %fCurrencySymbols9 = getelementptr inbounds %"class.icu_75::number::impl::MutablePatternModifier", ptr %this1, i32 0, i32 11
  %5 = load ptr, ptr %status.addr, align 8
  call void @_ZNK6icu_756number4impl15CurrencySymbols24getVariantCurrencySymbolER10UErrorCode(ptr sret(%"class.icu_75::UnicodeString") align 8 %agg.result, ptr noundef nonnull align 8 dereferenceable(232) %fCurrencySymbols9, ptr noundef nonnull align 4 dereferenceable(4) %5)
  br label %return

sw.bb10:                                          ; preds = %entry
  call void @_ZN6icu_7513UnicodeStringC2Ev(ptr noundef nonnull align 8 dereferenceable(64) %agg.result)
  br label %return

sw.default:                                       ; preds = %entry
  %fCurrencySymbols11 = getelementptr inbounds %"class.icu_75::number::impl::MutablePatternModifier", ptr %this1, i32 0, i32 11
  %6 = load ptr, ptr %status.addr, align 8
  call void @_ZNK6icu_756number4impl15CurrencySymbols17getCurrencySymbolER10UErrorCode(ptr sret(%"class.icu_75::UnicodeString") align 8 %agg.result, ptr noundef nonnull align 8 dereferenceable(232) %fCurrencySymbols11, ptr noundef nonnull align 4 dereferenceable(4) %6)
  br label %return

return:                                           ; preds = %sw.default, %sw.bb10, %sw.bb8, %sw.bb6, %sw.bb4, %sw.bb2, %sw.bb
  ret void
}