; Function Attrs: mustprogress uwtable
define void @_ZNK6icu_756number4impl22MutablePatternModifier29getCurrencySymbolForUnitWidthER10UErrorCode(ptr noalias sret(%"class.icu_75::UnicodeString") align 8 %agg.result, ptr noundef nonnull align 8 dereferenceable(392) %this, ptr noundef nonnull align 4 dereferenceable(4) %status) local_unnamed_addr #1 align 2 {
entry:
  %fUnitWidth = getelementptr inbounds i8, ptr %this, i64 64
  %0 = load i32, ptr %fUnitWidth, align 8
  switch i32 %0, label %sw.default [
    i32 0, label %sw.bb
    i32 1, label %sw.bb2
    i32 3, label %sw.bb4
    i32 4, label %sw.bb6
    i32 5, label %sw.bb8
    i32 6, label %sw.bb10
  ]

sw.bb:                                            ; preds = %entry
  %fCurrencySymbols = getelementptr inbounds i8, ptr %this, i64 72
  tail call void @_ZNK6icu_756number4impl15CurrencySymbols23getNarrowCurrencySymbolER10UErrorCode(ptr sret(%"class.icu_75::UnicodeString") align 8 %agg.result, ptr noundef nonnull align 8 dereferenceable(232) %fCurrencySymbols, ptr noundef nonnull align 4 dereferenceable(4) %status)
  br label %return

sw.bb2:                                           ; preds = %entry
  %fCurrencySymbols3 = getelementptr inbounds i8, ptr %this, i64 72
  tail call void @_ZNK6icu_756number4impl15CurrencySymbols17getCurrencySymbolER10UErrorCode(ptr sret(%"class.icu_75::UnicodeString") align 8 %agg.result, ptr noundef nonnull align 8 dereferenceable(232) %fCurrencySymbols3, ptr noundef nonnull align 4 dereferenceable(4) %status)
  br label %return

sw.bb4:                                           ; preds = %entry
  %fCurrencySymbols5 = getelementptr inbounds i8, ptr %this, i64 72
  tail call void @_ZNK6icu_756number4impl15CurrencySymbols21getIntlCurrencySymbolER10UErrorCode(ptr sret(%"class.icu_75::UnicodeString") align 8 %agg.result, ptr noundef nonnull align 8 dereferenceable(232) %fCurrencySymbols5, ptr noundef nonnull align 4 dereferenceable(4) %status)
  br label %return

sw.bb6:                                           ; preds = %entry
  %fCurrencySymbols7 = getelementptr inbounds i8, ptr %this, i64 72
  tail call void @_ZNK6icu_756number4impl15CurrencySymbols23getFormalCurrencySymbolER10UErrorCode(ptr sret(%"class.icu_75::UnicodeString") align 8 %agg.result, ptr noundef nonnull align 8 dereferenceable(232) %fCurrencySymbols7, ptr noundef nonnull align 4 dereferenceable(4) %status)
  br label %return

sw.bb8:                                           ; preds = %entry
  %fCurrencySymbols9 = getelementptr inbounds i8, ptr %this, i64 72
  tail call void @_ZNK6icu_756number4impl15CurrencySymbols24getVariantCurrencySymbolER10UErrorCode(ptr sret(%"class.icu_75::UnicodeString") align 8 %agg.result, ptr noundef nonnull align 8 dereferenceable(232) %fCurrencySymbols9, ptr noundef nonnull align 4 dereferenceable(4) %status)
  br label %return

sw.bb10:                                          ; preds = %entry
  store ptr getelementptr inbounds ({ [13 x ptr] }, ptr @_ZTVN6icu_7513UnicodeStringE, i64 0, i32 0, i64 2), ptr %agg.result, align 8
  %fUnion2.i = getelementptr inbounds i8, ptr %agg.result, i64 8
  store i16 2, ptr %fUnion2.i, align 8
  br label %return

sw.default:                                       ; preds = %entry
  %fCurrencySymbols11 = getelementptr inbounds i8, ptr %this, i64 72
  tail call void @_ZNK6icu_756number4impl15CurrencySymbols17getCurrencySymbolER10UErrorCode(ptr sret(%"class.icu_75::UnicodeString") align 8 %agg.result, ptr noundef nonnull align 8 dereferenceable(232) %fCurrencySymbols11, ptr noundef nonnull align 4 dereferenceable(4) %status)
  br label %return

return:                                           ; preds = %sw.default, %sw.bb10, %sw.bb8, %sw.bb6, %sw.bb4, %sw.bb2, %sw.bb
  ret void
}